target datalayout = "e-m:e-p270:32:32-p271:32:32-p272:64:64-i64:64-i128:128-f80:128-n8:16:32:64-S128"
target triple = "x86_64-pc-linux-gnu"

%struct.List = type { i32, i32, i32, ptr, [0 x %union.ListCell] }
%union.ListCell = type { ptr }
%struct.ForEachState = type { ptr, i32 }

@CurrentMemoryContext = external global ptr, align 8
@.str.170 = private unnamed_addr constant [17 x i8] c"strlist to array\00", align 1

; Function Attrs: inlinehint nounwind uwtable
define internal i64 @PointerGetDatum(ptr noundef %0) #4 {
  %2 = alloca ptr, align 8
  store ptr %0, ptr %2, align 8
  %3 = load ptr, ptr %2, align 8
  %4 = ptrtoint ptr %3 to i64
  ret i64 %4
}

; Function Attrs: inlinehint nounwind uwtable
define internal i32 @list_length(ptr noundef %0) #4 {
  %2 = alloca ptr, align 8
  store ptr %0, ptr %2, align 8
  %3 = load ptr, ptr %2, align 8
  %4 = icmp ne ptr %3, null
  br i1 %4, label %5, label %9

5:                                                ; preds = %1
  %6 = load ptr, ptr %2, align 8
  %7 = getelementptr inbounds nuw %struct.List, ptr %6, i32 0, i32 1
  %8 = load i32, ptr %7, align 4
  br label %10

9:                                                ; preds = %1
  br label %10

10:                                               ; preds = %9, %5
  %11 = phi i32 [ %8, %5 ], [ 0, %9 ]
  ret i32 %11
}

; Function Attrs: inlinehint nounwind uwtable
define internal ptr @MemoryContextSwitchTo(ptr noundef %0) #4 {
  %2 = alloca ptr, align 8
  %3 = alloca ptr, align 8
  store ptr %0, ptr %2, align 8
  call void @llvm.lifetime.start.p0(i64 8, ptr %3) #10
  %4 = load ptr, ptr @CurrentMemoryContext, align 8
  store ptr %4, ptr %3, align 8
  %5 = load ptr, ptr %2, align 8
  store ptr %5, ptr @CurrentMemoryContext, align 8
  %6 = load ptr, ptr %3, align 8
  call void @llvm.lifetime.end.p0(i64 8, ptr %3) #10
  ret ptr %6
}

; Function Attrs: nounwind uwtable
define dso_local ptr @strlist_to_textarray(ptr noundef %0) #0 {
  %2 = alloca ptr, align 8
  %3 = alloca ptr, align 8
  %4 = alloca ptr, align 8
  %5 = alloca ptr, align 8
  %6 = alloca i32, align 4
  %7 = alloca ptr, align 8
  %8 = alloca ptr, align 8
  %9 = alloca ptr, align 8
  %10 = alloca [1 x i32], align 4
  %11 = alloca i32, align 4
  %12 = alloca %struct.ForEachState, align 8
  %13 = alloca ptr, align 8
  store ptr %0, ptr %2, align 8
  call void @llvm.lifetime.start.p0(i64 8, ptr %3) #10
  call void @llvm.lifetime.start.p0(i64 8, ptr %4) #10
  call void @llvm.lifetime.start.p0(i64 8, ptr %5) #10
  call void @llvm.lifetime.start.p0(i64 4, ptr %6) #10
  store i32 0, ptr %6, align 4
  call void @llvm.lifetime.start.p0(i64 8, ptr %7) #10
  call void @llvm.lifetime.start.p0(i64 8, ptr %8) #10
  call void @llvm.lifetime.start.p0(i64 8, ptr %9) #10
  call void @llvm.lifetime.start.p0(i64 4, ptr %10) #10
  br label %14

14:                                               ; preds = %1
  br label %15

15:                                               ; preds = %14
  br label %16

16:                                               ; preds = %15
  store i32 1, ptr %11, align 4
  %17 = load ptr, ptr @CurrentMemoryContext, align 8
  %18 = call ptr @AllocSetContextCreateInternal(ptr noundef %17, ptr noundef @.str.170, i64 noundef 0, i64 noundef 8192, i64 noundef 8388608)
  store ptr %18, ptr %8, align 8
  %19 = load ptr, ptr %8, align 8
  %20 = call ptr @MemoryContextSwitchTo(ptr noundef %19)
  store ptr %20, ptr %9, align 8
  %21 = load ptr, ptr %2, align 8
  %22 = call i32 @list_length(ptr noundef %21)
  %23 = sext i32 %22 to i64
  %24 = mul i64 8, %23
  %25 = call ptr @palloc(i64 noundef %24)
  store ptr %25, ptr %4, align 8
  %26 = load ptr, ptr %2, align 8
  %27 = call i32 @list_length(ptr noundef %26)
  %28 = sext i32 %27 to i64
  %29 = mul i64 1, %28
  %30 = call ptr @palloc(i64 noundef %29)
  store ptr %30, ptr %5, align 8
  call void @llvm.lifetime.start.p0(i64 16, ptr %12) #10
  %31 = getelementptr inbounds nuw %struct.ForEachState, ptr %12, i32 0, i32 0
  %32 = load ptr, ptr %2, align 8
  store ptr %32, ptr %31, align 8
  %33 = getelementptr inbounds nuw %struct.ForEachState, ptr %12, i32 0, i32 1
  store i32 0, ptr %33, align 8
  %34 = getelementptr i8, ptr %12, i64 12
  call void @llvm.memset.p0.i64(ptr align 4 %34, i8 0, i64 4, i1 false)
  br label %35

35:                                               ; preds = %85, %16
  %36 = getelementptr inbounds nuw %struct.ForEachState, ptr %12, i32 0, i32 0
  %37 = load ptr, ptr %36, align 8
  %38 = icmp ne ptr %37, null
  br i1 %38, label %39, label %56

39:                                               ; preds = %35
  %40 = getelementptr inbounds nuw %struct.ForEachState, ptr %12, i32 0, i32 1
  %41 = load i32, ptr %40, align 8
  %42 = getelementptr inbounds nuw %struct.ForEachState, ptr %12, i32 0, i32 0
  %43 = load ptr, ptr %42, align 8
  %44 = getelementptr inbounds nuw %struct.List, ptr %43, i32 0, i32 1
  %45 = load i32, ptr %44, align 4
  %46 = icmp slt i32 %41, %45
  br i1 %46, label %47, label %56

47:                                               ; preds = %39
  %48 = getelementptr inbounds nuw %struct.ForEachState, ptr %12, i32 0, i32 0
  %49 = load ptr, ptr %48, align 8
  %50 = getelementptr inbounds nuw %struct.List, ptr %49, i32 0, i32 3
  %51 = load ptr, ptr %50, align 8
  %52 = getelementptr inbounds nuw %struct.ForEachState, ptr %12, i32 0, i32 1
  %53 = load i32, ptr %52, align 8
  %54 = sext i32 %53 to i64
  %55 = getelementptr inbounds %union.ListCell, ptr %51, i64 %54
  store ptr %55, ptr %7, align 8
  br label %57

56:                                               ; preds = %39, %35
  store ptr null, ptr %7, align 8
  br label %57

57:                                               ; preds = %56, %47
  %58 = phi i32 [ 1, %47 ], [ 0, %56 ]
  %59 = icmp ne i32 %58, 0
  br i1 %59, label %61, label %60

60:                                               ; preds = %57
  call void @llvm.lifetime.end.p0(i64 16, ptr %12) #10
  br label %89

61:                                               ; preds = %57
  call void @llvm.lifetime.start.p0(i64 8, ptr %13) #10
  %62 = load ptr, ptr %7, align 8
  %63 = load ptr, ptr %62, align 8
  store ptr %63, ptr %13, align 8
  %64 = load ptr, ptr %13, align 8
  %65 = icmp ne ptr %64, null
  br i1 %65, label %66, label %79

66:                                               ; preds = %61
  %67 = load ptr, ptr %5, align 8
  %68 = load i32, ptr %6, align 4
  %69 = sext i32 %68 to i64
  %70 = getelementptr inbounds i8, ptr %67, i64 %69
  store i8 0, ptr %70, align 1
  %71 = load ptr, ptr %13, align 8
  %72 = call ptr @cstring_to_text(ptr noundef %71)
  %73 = call i64 @PointerGetDatum(ptr noundef %72)
  %74 = load ptr, ptr %4, align 8
  %75 = load i32, ptr %6, align 4
  %76 = add i32 %75, 1
  store i32 %76, ptr %6, align 4
  %77 = sext i32 %75 to i64
  %78 = getelementptr inbounds i64, ptr %74, i64 %77
  store i64 %73, ptr %78, align 8
  br label %84

79:                                               ; preds = %61
  %80 = load ptr, ptr %5, align 8
  %81 = load i32, ptr %6, align 4
  %82 = sext i32 %81 to i64
  %83 = getelementptr inbounds i8, ptr %80, i64 %82
  store i8 1, ptr %83, align 1
  br label %84

84:                                               ; preds = %79, %66
  call void @llvm.lifetime.end.p0(i64 8, ptr %13) #10
  br label %85

85:                                               ; preds = %84
  %86 = getelementptr inbounds nuw %struct.ForEachState, ptr %12, i32 0, i32 1
  %87 = load i32, ptr %86, align 8
  %88 = add i32 %87, 1
  store i32 %88, ptr %86, align 8
  br label %35, !llvm.loop !13

89:                                               ; preds = %60
  %90 = load ptr, ptr %9, align 8
  %91 = call ptr @MemoryContextSwitchTo(ptr noundef %90)
  %92 = getelementptr inbounds [1 x i32], ptr %10, i64 0, i64 0
  store i32 1, ptr %92, align 4
  %93 = load ptr, ptr %4, align 8
  %94 = load ptr, ptr %5, align 8
  %95 = getelementptr inbounds [1 x i32], ptr %10, i64 0, i64 0
  %96 = call ptr @construct_md_array(ptr noundef %93, ptr noundef %94, i32 noundef 1, ptr noundef %6, ptr noundef %95, i32 noundef 25, i32 noundef -1, i1 noundef zeroext false, i8 noundef signext 105)
  store ptr %96, ptr %3, align 8
  %97 = load ptr, ptr %8, align 8
  call void @MemoryContextDelete(ptr noundef %97)
  %98 = load ptr, ptr %3, align 8
  call void @llvm.lifetime.end.p0(i64 4, ptr %10) #10
  call void @llvm.lifetime.end.p0(i64 8, ptr %9) #10
  call void @llvm.lifetime.end.p0(i64 8, ptr %8) #10
  call void @llvm.lifetime.end.p0(i64 8, ptr %7) #10
  call void @llvm.lifetime.end.p0(i64 4, ptr %6) #10
  call void @llvm.lifetime.end.p0(i64 8, ptr %5) #10
  call void @llvm.lifetime.end.p0(i64 8, ptr %4) #10
  call void @llvm.lifetime.end.p0(i64 8, ptr %3) #10
  ret ptr %98
}