; Function Attrs: nounwind uwtable
define dso_local ptr @strlist_to_textarray(ptr noundef readonly captures(address_is_null) %0) local_unnamed_addr #0 {
  %2 = alloca i32, align 4
  %3 = alloca [1 x i32], align 4
  call void @llvm.lifetime.start.p0(i64 4, ptr nonnull %2) #11
  store i32 0, ptr %2, align 4
  call void @llvm.lifetime.start.p0(i64 4, ptr nonnull %3) #11
  %4 = load ptr, ptr @CurrentMemoryContext, align 8
  %5 = tail call ptr @AllocSetContextCreateInternal(ptr noundef %4, ptr noundef nonnull @.str.170, i64 noundef 0, i64 noundef 8192, i64 noundef 8388608) #11
  %6 = load ptr, ptr @CurrentMemoryContext, align 8
  store ptr %5, ptr @CurrentMemoryContext, align 8
  %.not.i = icmp eq ptr %0, null
  br i1 %.not.i, label %list_length.exit24.thread, label %.lr.ph

list_length.exit24.thread:                        ; preds = %1
  %7 = tail call ptr @palloc(i64 noundef 0) #11
  %8 = tail call ptr @palloc(i64 noundef 0) #11
  br label %._crit_edge

.lr.ph:                                           ; preds = %1
  %9 = getelementptr inbounds nuw i8, ptr %0, i64 4
  %10 = load i32, ptr %9, align 4
  %11 = sext i32 %10 to i64
  %12 = shl nsw i64 %11, 3
  %13 = tail call ptr @palloc(i64 noundef %12) #11
  %14 = load i32, ptr %9, align 4
  %15 = sext i32 %14 to i64
  %16 = tail call ptr @palloc(i64 noundef %15) #11
  %17 = getelementptr inbounds nuw i8, ptr %0, i64 4
  %18 = getelementptr inbounds nuw i8, ptr %0, i64 16
  %19 = load i32, ptr %17, align 4
  %20 = icmp sgt i32 %19, 0
  br i1 %20, label %.lr.ph30, label %._crit_edge

._crit_edge:                                      ; preds = %36, %list_length.exit24.thread, %.lr.ph
  %21 = phi ptr [ %8, %list_length.exit24.thread ], [ %16, %.lr.ph ], [ %16, %36 ]
  %22 = phi ptr [ %7, %list_length.exit24.thread ], [ %13, %.lr.ph ], [ %13, %36 ]
  store ptr %6, ptr @CurrentMemoryContext, align 8
  store i32 1, ptr %3, align 4
  %23 = call ptr @construct_md_array(ptr noundef %22, ptr noundef %21, i32 noundef 1, ptr noundef nonnull %2, ptr noundef nonnull %3, i32 noundef 25, i32 noundef -1, i1 noundef zeroext false, i8 noundef signext 105) #11
  call void @MemoryContextDelete(ptr noundef %5) #11
  call void @llvm.lifetime.end.p0(i64 4, ptr nonnull %3) #11
  call void @llvm.lifetime.end.p0(i64 4, ptr nonnull %2) #11
  ret ptr %23

.lr.ph30:                                         ; preds = %.lr.ph, %36
  %24 = phi i32 [ %37, %36 ], [ 0, %.lr.ph ]
  %indvars.iv = phi i64 [ %indvars.iv.next, %36 ], [ 0, %.lr.ph ]
  %25 = load ptr, ptr %18, align 8
  %26 = getelementptr inbounds nuw %union.ListCell, ptr %25, i64 %indvars.iv
  %27 = load ptr, ptr %26, align 8
  %.not22 = icmp eq ptr %27, null
  %28 = sext i32 %24 to i64
  %29 = getelementptr inbounds i8, ptr %16, i64 %28
  br i1 %.not22, label %35, label %30

30:                                               ; preds = %.lr.ph30
  store i8 0, ptr %29, align 1
  %31 = tail call ptr @cstring_to_text(ptr noundef nonnull %27) #11
  %32 = ptrtoint ptr %31 to i64
  %33 = add i32 %24, 1
  store i32 %33, ptr %2, align 4
  %34 = getelementptr inbounds i64, ptr %13, i64 %28
  store i64 %32, ptr %34, align 8
  br label %36

35:                                               ; preds = %.lr.ph30
  store i8 1, ptr %29, align 1
  br label %36

36:                                               ; preds = %35, %30
  %37 = phi i32 [ %24, %35 ], [ %33, %30 ]
  %indvars.iv.next = add nuw nsw i64 %indvars.iv, 1
  %38 = load i32, ptr %17, align 4
  %39 = sext i32 %38 to i64
  %40 = icmp slt i64 %indvars.iv.next, %39
  br i1 %40, label %.lr.ph30, label %._crit_edge
}